; Function Attrs: mustprogress uwtable
define internal fastcc noundef zeroext i1 @"_ZN12_GLOBAL__N_117TryGeneratedPathsIRZN20cmFindPackageCommand12SearchPrefixERKNSt7__cxx1112basic_stringIcSt11char_traitsIcESaIcEEEE3$_0RNS_39cmCaseInsensitiveDirectoryListGeneratorEJEEEbOT_S9_OT0_DpOT1_"(ptr nocapture noundef nonnull readonly align 8 dereferenceable(8) %0, ptr noundef nonnull align 8 dereferenceable(32) %1, ptr noundef nonnull align 8 dereferenceable(33) %2) unnamed_addr #3 personality ptr @__gxx_personality_v0 {
  %4 = alloca %"class.std::__cxx11::basic_string", align 8
  %5 = alloca %"class.std::__cxx11::basic_string", align 8
  %6 = alloca %"class.std::__cxx11::basic_string", align 8
  %7 = getelementptr inbounds i8, ptr %2, i64 32
  store i8 0, ptr %7, align 8
  call fastcc void @_ZN12_GLOBAL__N_139cmCaseInsensitiveDirectoryListGenerator16GetNextCandidateERKNSt7__cxx1112basic_stringIcSt11char_traitsIcESaIcEEE(ptr dead_on_unwind noalias nonnull writable align 8 %5, ptr noundef nonnull align 8 dereferenceable(33) %2, ptr noundef nonnull align 8 dereferenceable(32) %1)
  %8 = call noundef zeroext i1 @_ZNKSt7__cxx1112basic_stringIcSt11char_traitsIcESaIcEE5emptyEv(ptr noundef nonnull align 8 dereferenceable(32) %5) #23
  br i1 %8, label %._crit_edge, label %.lr.ph

.lr.ph:                                           ; preds = %3, %19
  call void @llvm.lifetime.start.p0(i64 32, ptr nonnull %4)
  invoke void @_ZNSt7__cxx1112basic_stringIcSt11char_traitsIcESaIcEEC1ERKS4_(ptr noundef nonnull align 8 dereferenceable(32) %4, ptr noundef nonnull align 8 dereferenceable(32) %5)
          to label %.noexc unwind label %16

.noexc:                                           ; preds = %.lr.ph
  %9 = invoke noundef nonnull align 8 dereferenceable(32) ptr @_ZNSt7__cxx1112basic_stringIcSt11char_traitsIcESaIcEE6appendEmc(ptr noundef nonnull align 8 dereferenceable(32) %4, i64 noundef 1, i8 noundef signext 47)
          to label %_ZStplIcSt11char_traitsIcESaIcEENSt7__cxx1112basic_stringIT_T0_T1_EERKS8_S5_.exit.i unwind label %10

common.resume.i:                                  ; preds = %13, %10
  %common.resume.op.i = phi { ptr, i32 } [ %11, %10 ], [ %14, %13 ]
  call void @_ZNSt7__cxx1112basic_stringIcSt11char_traitsIcESaIcEED1Ev(ptr noundef nonnull align 8 dereferenceable(32) %4) #23
  br label %.body

10:                                               ; preds = %.noexc
  %11 = landingpad { ptr, i32 }
          cleanup
  br label %common.resume.i

_ZStplIcSt11char_traitsIcESaIcEENSt7__cxx1112basic_stringIT_T0_T1_EERKS8_S5_.exit.i: ; preds = %.noexc
  %.val.i = load ptr, ptr %0, align 8
  %12 = invoke noundef zeroext i1 @_ZN20cmFindPackageCommand15SearchDirectoryERKNSt7__cxx1112basic_stringIcSt11char_traitsIcESaIcEEE(ptr noundef nonnull align 8 dereferenceable(1104) %.val.i, ptr noundef nonnull align 8 dereferenceable(32) %4)
          to label %15 unwind label %13

13:                                               ; preds = %_ZStplIcSt11char_traitsIcESaIcEENSt7__cxx1112basic_stringIT_T0_T1_EERKS8_S5_.exit.i
  %14 = landingpad { ptr, i32 }
          cleanup
  br label %common.resume.i

15:                                               ; preds = %_ZStplIcSt11char_traitsIcESaIcEENSt7__cxx1112basic_stringIT_T0_T1_EERKS8_S5_.exit.i
  call void @_ZNSt7__cxx1112basic_stringIcSt11char_traitsIcESaIcEED1Ev(ptr noundef nonnull align 8 dereferenceable(32) %4) #23
  call void @llvm.lifetime.end.p0(i64 32, ptr nonnull %4)
  br i1 %12, label %._crit_edge, label %18

16:                                               ; preds = %.lr.ph, %18
  %17 = landingpad { ptr, i32 }
          cleanup
  br label %.body

.body:                                            ; preds = %common.resume.i, %16
  %eh.lpad-body = phi { ptr, i32 } [ %17, %16 ], [ %common.resume.op.i, %common.resume.i ]
  call void @_ZNSt7__cxx1112basic_stringIcSt11char_traitsIcESaIcEED1Ev(ptr noundef nonnull align 8 dereferenceable(32) %5) #23
  resume { ptr, i32 } %eh.lpad-body

18:                                               ; preds = %15
  invoke fastcc void @_ZN12_GLOBAL__N_139cmCaseInsensitiveDirectoryListGenerator16GetNextCandidateERKNSt7__cxx1112basic_stringIcSt11char_traitsIcESaIcEEE(ptr dead_on_unwind noalias nonnull writable align 8 %6, ptr noundef nonnull align 8 dereferenceable(33) %2, ptr noundef nonnull align 8 dereferenceable(32) %1)
          to label %19 unwind label %16

19:                                               ; preds = %18
  %20 = call noundef nonnull align 8 dereferenceable(32) ptr @_ZNSt7__cxx1112basic_stringIcSt11char_traitsIcESaIcEEaSEOS4_(ptr noundef nonnull align 8 dereferenceable(32) %5, ptr noundef nonnull align 8 dereferenceable(32) %6) #23
  call void @_ZNSt7__cxx1112basic_stringIcSt11char_traitsIcESaIcEED1Ev(ptr noundef nonnull align 8 dereferenceable(32) %6) #23
  %21 = call noundef zeroext i1 @_ZNKSt7__cxx1112basic_stringIcSt11char_traitsIcESaIcEE5emptyEv(ptr noundef nonnull align 8 dereferenceable(32) %5) #23
  br i1 %21, label %._crit_edge, label %.lr.ph, !llvm.loop !905

._crit_edge:                                      ; preds = %19, %15, %3
  %not. = phi i1 [ false, %3 ], [ %12, %15 ], [ %12, %19 ]
  call void @_ZNSt7__cxx1112basic_stringIcSt11char_traitsIcESaIcEED1Ev(ptr noundef nonnull align 8 dereferenceable(32) %5) #23
  ret i1 %not.
}